target datalayout = "e-m:e-p270:32:32-p271:32:32-p272:64:64-i64:64-i128:128-f80:128-n8:16:32:64-S128"
target triple = "x86_64-pc-linux-gnu"

%struct.ident_t = type { i32, i32, i32, i32, ptr }

@2 = private unnamed_addr constant %struct.ident_t { i32 0, i32 2, i32 0, i32 22, ptr @0 }, align 8
@_ZN12colvarmodule9errorCodeE = external global i32, align 4

; Function Attrs: inlinehint mustprogress nounwind uwtable
define linkonce_odr noundef i32 @_ZN12colvarmodule9get_errorEv() #9 comdat align 2 {
  %1 = load i32, ptr @_ZN12colvarmodule9errorCodeE, align 4, !tbaa !9
  ret i32 %1
}

; Function Attrs: mustprogress uwtable
define noundef i32 @_ZN15colvarproxy_smp22smp_biases_script_loopEv(ptr noundef nonnull align 8 dereferenceable(24) %0) unnamed_addr #1 align 2 {
  %2 = alloca ptr, align 8
  %3 = alloca ptr, align 8
  store ptr %0, ptr %2, align 8, !tbaa !21
  %4 = load ptr, ptr %2, align 8
  call void @llvm.lifetime.start.p0(i64 8, ptr %3) #18
  %5 = call noundef ptr @_ZN12colvarmodule4mainEv()
  store ptr %5, ptr %3, align 8, !tbaa !29
  call void (ptr, i32, ptr, ...) @__kmpc_fork_call(ptr @2, i32 2, ptr @_ZN15colvarproxy_smp22smp_biases_script_loopEv.omp_outlined, ptr %3, ptr %4)
  %6 = call noundef i32 @_ZN12colvarmodule9get_errorEv()
  call void @llvm.lifetime.end.p0(i64 8, ptr %3) #18
  ret i32 %6
}